target datalayout = "e-m:e-p270:32:32-p271:32:32-p272:64:64-i64:64-i128:128-f80:128-n8:16:32:64-S128"
target triple = "x86_64-pc-linux-gnu"

%"class.std::__cxx11::basic_string" = type { %"struct.std::__cxx11::basic_string<char>::_Alloc_hider", i64, %union.anon }
%"struct.std::__cxx11::basic_string<char>::_Alloc_hider" = type { ptr }
%union.anon = type { i64, [8 x i8] }
%"struct.std::_Rb_tree_header" = type { %"struct.std::_Rb_tree_node_base", i64 }
%"struct.std::_Rb_tree_node_base" = type { i32, ptr, ptr, ptr }
%"struct.Yosys::AST::AstNode" = type <{ i32, i32, %"class.std::vector.28", %"class.std::map.33", %"class.std::__cxx11::basic_string", %"class.std::vector.41", i8, i8, i8, i8, i8, i8, i8, i8, i8, i8, i8, i8, i8, [3 x i8], i32, i32, i32, i32, double, i8, [7 x i8], %"class.std::vector.46", i32, [4 x i8], ptr, i8, i8, [6 x i8], %"class.std::__cxx11::basic_string", %"struct.Yosys::AST::AstSrcLocType", i8, i8, i8, i8, [4 x i8] }>
%"class.std::vector.28" = type { %"struct.std::_Vector_base.29" }
%"struct.std::_Vector_base.29" = type { %"struct.std::_Vector_base<Yosys::AST::AstNode *, std::allocator<Yosys::AST::AstNode *>>::_Vector_impl" }
%"struct.std::_Vector_base<Yosys::AST::AstNode *, std::allocator<Yosys::AST::AstNode *>>::_Vector_impl" = type { %"struct.std::_Vector_base<Yosys::AST::AstNode *, std::allocator<Yosys::AST::AstNode *>>::_Vector_impl_data" }
%"struct.std::_Vector_base<Yosys::AST::AstNode *, std::allocator<Yosys::AST::AstNode *>>::_Vector_impl_data" = type { ptr, ptr, ptr }
%"class.std::map.33" = type { %"class.std::_Rb_tree.34" }
%"class.std::_Rb_tree.34" = type { %"struct.std::_Rb_tree<Yosys::RTLIL::IdString, std::pair<const Yosys::RTLIL::IdString, Yosys::AST::AstNode *>, std::_Select1st<std::pair<const Yosys::RTLIL::IdString, Yosys::AST::AstNode *>>, std::less<Yosys::RTLIL::IdString>>::_Rb_tree_impl" }
%"struct.std::_Rb_tree<Yosys::RTLIL::IdString, std::pair<const Yosys::RTLIL::IdString, Yosys::AST::AstNode *>, std::_Select1st<std::pair<const Yosys::RTLIL::IdString, Yosys::AST::AstNode *>>, std::less<Yosys::RTLIL::IdString>>::_Rb_tree_impl" = type { %"struct.std::_Rb_tree_key_compare.38", %"struct.std::_Rb_tree_header" }
%"struct.std::_Rb_tree_key_compare.38" = type { %"struct.std::less.39" }
%"struct.std::less.39" = type { i8 }
%"class.std::vector.41" = type { %"struct.std::_Vector_base.42" }
%"struct.std::_Vector_base.42" = type { %"struct.std::_Vector_base<Yosys::RTLIL::State, std::allocator<Yosys::RTLIL::State>>::_Vector_impl" }
%"struct.std::_Vector_base<Yosys::RTLIL::State, std::allocator<Yosys::RTLIL::State>>::_Vector_impl" = type { %"struct.std::_Vector_base<Yosys::RTLIL::State, std::allocator<Yosys::RTLIL::State>>::_Vector_impl_data" }
%"struct.std::_Vector_base<Yosys::RTLIL::State, std::allocator<Yosys::RTLIL::State>>::_Vector_impl_data" = type { ptr, ptr, ptr }
%"class.std::vector.46" = type { %"struct.std::_Vector_base.47" }
%"struct.std::_Vector_base.47" = type { %"struct.std::_Vector_base<Yosys::AST::AstNode::dimension_t, std::allocator<Yosys::AST::AstNode::dimension_t>>::_Vector_impl" }
%"struct.std::_Vector_base<Yosys::AST::AstNode::dimension_t, std::allocator<Yosys::AST::AstNode::dimension_t>>::_Vector_impl" = type { %"struct.std::_Vector_base<Yosys::AST::AstNode::dimension_t, std::allocator<Yosys::AST::AstNode::dimension_t>>::_Vector_impl_data" }
%"struct.std::_Vector_base<Yosys::AST::AstNode::dimension_t, std::allocator<Yosys::AST::AstNode::dimension_t>>::_Vector_impl_data" = type { ptr, ptr, ptr }
%"struct.Yosys::AST::AstSrcLocType" = type { i32, i32, i32, i32 }

@.str.240 = private unnamed_addr constant [15 x i8] c"%s:%d.%d-%d.%d\00", align 1

; Function Attrs: mustprogress uwtable
define void @_ZNK5Yosys3AST7AstNode10loc_stringB5cxx11Ev(ptr dead_on_unwind noalias writable sret(%"class.std::__cxx11::basic_string") align 8 %0, ptr noundef nonnull align 8 dereferenceable(284) %1) #5 align 2 {
  %3 = alloca ptr, align 8
  %4 = alloca ptr, align 8
  store ptr %0, ptr %3, align 8
  store ptr %1, ptr %4, align 8
  %5 = load ptr, ptr %4, align 8
  %6 = getelementptr inbounds %"struct.Yosys::AST::AstNode", ptr %5, i32 0, i32 34
  %7 = call noundef ptr @_ZNKSt7__cxx1112basic_stringIcSt11char_traitsIcESaIcEE5c_strEv(ptr noundef nonnull align 8 dereferenceable(32) %6) #3
  %8 = getelementptr inbounds %"struct.Yosys::AST::AstNode", ptr %5, i32 0, i32 35
  %9 = getelementptr inbounds %"struct.Yosys::AST::AstSrcLocType", ptr %8, i32 0, i32 0
  %10 = load i32, ptr %9, align 8
  %11 = getelementptr inbounds %"struct.Yosys::AST::AstNode", ptr %5, i32 0, i32 35
  %12 = getelementptr inbounds %"struct.Yosys::AST::AstSrcLocType", ptr %11, i32 0, i32 2
  %13 = load i32, ptr %12, align 8
  %14 = getelementptr inbounds %"struct.Yosys::AST::AstNode", ptr %5, i32 0, i32 35
  %15 = getelementptr inbounds %"struct.Yosys::AST::AstSrcLocType", ptr %14, i32 0, i32 1
  %16 = load i32, ptr %15, align 4
  %17 = getelementptr inbounds %"struct.Yosys::AST::AstNode", ptr %5, i32 0, i32 35
  %18 = getelementptr inbounds %"struct.Yosys::AST::AstSrcLocType", ptr %17, i32 0, i32 3
  %19 = load i32, ptr %18, align 4
  call void (ptr, ptr, ...) @_ZN5Yosys7stringfB5cxx11EPKcz(ptr dead_on_unwind writable sret(%"class.std::__cxx11::basic_string") align 8 %0, ptr noundef @.str.240, ptr noundef %7, i32 noundef %10, i32 noundef %13, i32 noundef %16, i32 noundef %19)
  ret void
}