; Function Attrs: mustprogress uwtable
define void @_ZNK5Yosys3AST7AstNode10loc_stringB5cxx11Ev(ptr dead_on_unwind noalias writable sret(%"class.std::__cxx11::basic_string") align 8 %0, ptr noundef nonnull align 8 dereferenceable(284) %1) local_unnamed_addr #4 align 2 {
  %3 = getelementptr inbounds i8, ptr %1, i64 232
  %4 = tail call noundef ptr @_ZNKSt7__cxx1112basic_stringIcSt11char_traitsIcESaIcEE5c_strEv(ptr noundef nonnull align 8 dereferenceable(32) %3) #34
  %5 = getelementptr inbounds i8, ptr %1, i64 264
  %6 = load i32, ptr %5, align 8
  %7 = getelementptr inbounds i8, ptr %1, i64 272
  %8 = load i32, ptr %7, align 8
  %9 = getelementptr inbounds i8, ptr %1, i64 268
  %10 = load i32, ptr %9, align 4
  %11 = getelementptr inbounds i8, ptr %1, i64 276
  %12 = load i32, ptr %11, align 4
  tail call void (ptr, ptr, ...) @_ZN5Yosys7stringfB5cxx11EPKcz(ptr dead_on_unwind writable sret(%"class.std::__cxx11::basic_string") align 8 %0, ptr noundef nonnull @.str.240, ptr noundef %4, i32 noundef %6, i32 noundef %8, i32 noundef %10, i32 noundef %12)
  ret void
}